target datalayout = "e-m:e-p270:32:32-p271:32:32-p272:64:64-i64:64-i128:128-f80:128-n8:16:32:64-S128"
target triple = "x86_64-pc-linux-gnu"

%"class.llvm::SmallVectorBase" = type { ptr, i32, i32 }
%"class.std::_Function_base" = type { %"union.std::_Any_data", ptr }
%"union.std::_Any_data" = type { %"union.std::_Nocopy_types" }
%"union.std::_Nocopy_types" = type { { i64, i64 } }
%"class.llvm::LLT" = type { i64 }
%"struct.llvm::LegalizeActionStep" = type { i8, i32, %"class.llvm::LLT" }
%"struct.std::pair" = type { i32, %"class.llvm::LLT" }
%"class.llvm::LegalizeRuleSet" = type { i32, i8, %"class.llvm::SmallVector.1" }
%"class.llvm::SmallVector.1" = type { %"class.llvm::SmallVectorImpl.2", %"struct.llvm::SmallVectorStorage.5" }
%"class.llvm::SmallVectorImpl.2" = type { %"class.llvm::SmallVectorTemplateBase.3" }
%"class.llvm::SmallVectorTemplateBase.3" = type { %"class.llvm::SmallVectorTemplateCommon.4" }
%"class.llvm::SmallVectorTemplateCommon.4" = type { %"class.llvm::SmallVectorBase" }
%"struct.llvm::SmallVectorStorage.5" = type { [144 x i8] }
%"class.llvm::LegalizeRule" = type { %"class.std::function.6", i8, %"class.std::function.9" }
%"class.std::function.6" = type { %"class.std::_Function_base", ptr }
%"class.std::function.9" = type { %"class.std::_Function_base", ptr }
%"struct.std::pair.104" = type { i32, %"class.llvm::LLT" }

; Function Attrs: mustprogress nounwind uwtable
define linkonce_odr hidden void @_ZNSt4pairIiN4llvm3LLTEEC2IiS1_TnNSt9enable_ifIXaaclsr5_PCCPE22_MoveConstructiblePairIT_T0_EEclsr5_PCCPE30_ImplicitlyMoveConvertiblePairIS5_S6_EEEbE4typeELb1EEEOS5_OS6_(ptr noundef nonnull align 8 dereferenceable(16) %0, ptr noundef nonnull align 4 dereferenceable(4) %1, ptr noundef nonnull align 8 dereferenceable(8) %2) unnamed_addr #1 comdat align 2 {
  %4 = alloca ptr, align 8
  %5 = alloca ptr, align 8
  %6 = alloca ptr, align 8
  store ptr %0, ptr %4, align 8
  store ptr %1, ptr %5, align 8
  store ptr %2, ptr %6, align 8
  %7 = load ptr, ptr %4, align 8
  %8 = getelementptr inbounds nuw %"struct.std::pair.104", ptr %7, i32 0, i32 0
  %9 = load ptr, ptr %5, align 8
  %10 = load i32, ptr %9, align 4
  store i32 %10, ptr %8, align 8
  %11 = getelementptr inbounds nuw %"struct.std::pair.104", ptr %7, i32 0, i32 1
  %12 = load ptr, ptr %6, align 8
  call void @llvm.memcpy.p0.p0.i64(ptr align 8 %11, ptr align 8 %12, i64 8, i1 false)
  ret void
}

; Function Attrs: mustprogress nounwind uwtable
define linkonce_odr hidden noundef zeroext i1 @_ZNKSt14_Function_base8_M_emptyEv(ptr noundef nonnull align 8 dereferenceable(24) %0) #1 comdat align 2 {
  %2 = alloca ptr, align 8
  store ptr %0, ptr %2, align 8
  %3 = load ptr, ptr %2, align 8
  %4 = getelementptr inbounds nuw %"class.std::_Function_base", ptr %3, i32 0, i32 1
  %5 = load ptr, ptr %4, align 8
  %6 = icmp ne ptr %5, null
  %7 = xor i1 %6, true
  ret i1 %7
}

; Function Attrs: mustprogress nounwind uwtable
define linkonce_odr hidden void @_ZNSt4pairIjN4llvm3LLTEEC2IiS1_TnNSt9enable_ifIXaaclsr6_PCCFPIT_T0_EE22_MoveConstructiblePairIS5_S6_EEclsr6_PCCFPIS5_S6_EE30_ImplicitlyMoveConvertiblePairIS5_S6_EEEbE4typeELb1EEEOS_IS5_S6_E(ptr noundef nonnull align 8 dereferenceable(16) %0, ptr noundef nonnull align 8 dereferenceable(16) %1) unnamed_addr #1 comdat align 2 {
  %3 = alloca ptr, align 8
  %4 = alloca ptr, align 8
  store ptr %0, ptr %3, align 8
  store ptr %1, ptr %4, align 8
  %5 = load ptr, ptr %3, align 8
  %6 = getelementptr inbounds nuw %"struct.std::pair", ptr %5, i32 0, i32 0
  %7 = load ptr, ptr %4, align 8
  %8 = getelementptr inbounds nuw %"struct.std::pair.104", ptr %7, i32 0, i32 0
  %9 = load i32, ptr %8, align 4
  store i32 %9, ptr %6, align 8
  %10 = getelementptr inbounds nuw %"struct.std::pair", ptr %5, i32 0, i32 1
  %11 = load ptr, ptr %4, align 8
  %12 = getelementptr inbounds nuw %"struct.std::pair.104", ptr %11, i32 0, i32 1
  call void @llvm.memcpy.p0.p0.i64(ptr align 8 %10, ptr align 8 %12, i64 8, i1 false)
  ret void
}

; Function Attrs: mustprogress nounwind uwtable
define linkonce_odr { i32, i64 } @_ZSt9make_pairIiN4llvm3LLTEESt4pairINSt25__strip_reference_wrapperINSt5decayIT_E4typeEE6__typeENS3_INS4_IT0_E4typeEE6__typeEEOS5_OSA_(ptr noundef nonnull align 4 dereferenceable(4) %0, ptr noundef nonnull align 8 dereferenceable(8) %1) #1 comdat {
  %3 = alloca %"struct.std::pair.104", align 8
  %4 = alloca ptr, align 8
  %5 = alloca ptr, align 8
  store ptr %0, ptr %4, align 8
  store ptr %1, ptr %5, align 8
  %6 = load ptr, ptr %4, align 8
  %7 = load ptr, ptr %5, align 8
  call void @_ZNSt4pairIiN4llvm3LLTEEC2IiS1_TnNSt9enable_ifIXaaclsr5_PCCPE22_MoveConstructiblePairIT_T0_EEclsr5_PCCPE30_ImplicitlyMoveConvertiblePairIS5_S6_EEEbE4typeELb1EEEOS5_OS6_(ptr noundef nonnull align 8 dereferenceable(16) %3, ptr noundef nonnull align 4 dereferenceable(4) %6, ptr noundef nonnull align 8 dereferenceable(8) %7)
  %8 = load { i32, i64 }, ptr %3, align 8
  ret { i32, i64 } %8
}

; Function Attrs: mustprogress nounwind uwtable
define linkonce_odr hidden { i32, i64 } @_ZNKSt8functionIFSt4pairIjN4llvm3LLTEERKNS1_13LegalityQueryEEEclES6_(ptr noundef nonnull align 8 dereferenceable(32) %0, ptr noundef nonnull align 8 dereferenceable(40) %1) #1 comdat align 2 {
  %3 = alloca %"struct.std::pair", align 8
  %4 = alloca ptr, align 8
  %5 = alloca ptr, align 8
  store ptr %0, ptr %4, align 8
  store ptr %1, ptr %5, align 8
  %6 = load ptr, ptr %4, align 8
  %7 = call noundef zeroext i1 @_ZNKSt14_Function_base8_M_emptyEv(ptr noundef nonnull align 8 dereferenceable(24) %6)
  br i1 %7, label %8, label %9

8:                                                ; preds = %2
  call void @_ZSt25__throw_bad_function_callv() #13
  unreachable

9:                                                ; preds = %2
  %10 = getelementptr inbounds nuw %"class.std::function.9", ptr %6, i32 0, i32 1
  %11 = load ptr, ptr %10, align 8
  %12 = getelementptr inbounds nuw %"class.std::_Function_base", ptr %6, i32 0, i32 0
  %13 = load ptr, ptr %5, align 8
  %14 = call { i32, i64 } %11(ptr noundef nonnull align 8 dereferenceable(16) %12, ptr noundef nonnull align 8 dereferenceable(40) %13)
  %15 = getelementptr inbounds nuw { i32, i64 }, ptr %3, i32 0, i32 0
  %16 = extractvalue { i32, i64 } %14, 0
  store i32 %16, ptr %15, align 8
  %17 = getelementptr inbounds nuw { i32, i64 }, ptr %3, i32 0, i32 1
  %18 = extractvalue { i32, i64 } %14, 1
  store i64 %18, ptr %17, align 8
  %19 = load { i32, i64 }, ptr %3, align 8
  ret { i32, i64 } %19
}

; Function Attrs: mustprogress nounwind uwtable
define linkonce_odr hidden noundef zeroext i1 @_ZNKSt8functionIFSt4pairIjN4llvm3LLTEERKNS1_13LegalityQueryEEEcvbEv(ptr noundef nonnull align 8 dereferenceable(32) %0) #1 comdat align 2 {
  %2 = alloca ptr, align 8
  store ptr %0, ptr %2, align 8
  %3 = load ptr, ptr %2, align 8
  %4 = call noundef zeroext i1 @_ZNKSt14_Function_base8_M_emptyEv(ptr noundef nonnull align 8 dereferenceable(24) %3)
  %5 = xor i1 %4, true
  ret i1 %5
}

; Function Attrs: mustprogress nounwind uwtable
define linkonce_odr hidden noundef zeroext i1 @_ZNKSt8functionIFbRKN4llvm13LegalityQueryEEEclES3_(ptr noundef nonnull align 8 dereferenceable(32) %0, ptr noundef nonnull align 8 dereferenceable(40) %1) #1 comdat align 2 {
  %3 = alloca ptr, align 8
  %4 = alloca ptr, align 8
  store ptr %0, ptr %3, align 8
  store ptr %1, ptr %4, align 8
  %5 = load ptr, ptr %3, align 8
  %6 = call noundef zeroext i1 @_ZNKSt14_Function_base8_M_emptyEv(ptr noundef nonnull align 8 dereferenceable(24) %5)
  br i1 %6, label %7, label %8

7:                                                ; preds = %2
  call void @_ZSt25__throw_bad_function_callv() #13
  unreachable

8:                                                ; preds = %2
  %9 = getelementptr inbounds nuw %"class.std::function.6", ptr %5, i32 0, i32 1
  %10 = load ptr, ptr %9, align 8
  %11 = getelementptr inbounds nuw %"class.std::_Function_base", ptr %5, i32 0, i32 0
  %12 = load ptr, ptr %4, align 8
  %13 = call noundef zeroext i1 %10(ptr noundef nonnull align 8 dereferenceable(16) %11, ptr noundef nonnull align 8 dereferenceable(40) %12)
  ret i1 %13
}

; Function Attrs: mustprogress nounwind uwtable
define linkonce_odr hidden noundef zeroext i8 @_ZNK4llvm12LegalizeRule9getActionEv(ptr noundef nonnull align 8 dereferenceable(72) %0) #1 comdat align 2 {
  %2 = alloca ptr, align 8
  store ptr %0, ptr %2, align 8
  %3 = load ptr, ptr %2, align 8
  %4 = getelementptr inbounds nuw %"class.llvm::LegalizeRule", ptr %3, i32 0, i32 1
  %5 = load i8, ptr %4, align 8
  ret i8 %5
}

; Function Attrs: mustprogress nounwind uwtable
define linkonce_odr hidden { i32, i64 } @_ZNK4llvm12LegalizeRule17determineMutationERKNS_13LegalityQueryE(ptr noundef nonnull align 8 dereferenceable(72) %0, ptr noundef nonnull align 8 dereferenceable(40) %1) #1 comdat align 2 {
  %3 = alloca %"struct.std::pair", align 8
  %4 = alloca ptr, align 8
  %5 = alloca ptr, align 8
  %6 = alloca %"struct.std::pair.104", align 8
  %7 = alloca i32, align 4
  %8 = alloca %"class.llvm::LLT", align 8
  store ptr %0, ptr %4, align 8
  store ptr %1, ptr %5, align 8
  %9 = load ptr, ptr %4, align 8
  %10 = getelementptr inbounds nuw %"class.llvm::LegalizeRule", ptr %9, i32 0, i32 2
  %11 = call noundef zeroext i1 @_ZNKSt8functionIFSt4pairIjN4llvm3LLTEERKNS1_13LegalityQueryEEEcvbEv(ptr noundef nonnull align 8 dereferenceable(32) %10) #2
  br i1 %11, label %12, label %20

12:                                               ; preds = %2
  %13 = getelementptr inbounds nuw %"class.llvm::LegalizeRule", ptr %9, i32 0, i32 2
  %14 = load ptr, ptr %5, align 8
  %15 = call { i32, i64 } @_ZNKSt8functionIFSt4pairIjN4llvm3LLTEERKNS1_13LegalityQueryEEEclES6_(ptr noundef nonnull align 8 dereferenceable(32) %13, ptr noundef nonnull align 8 dereferenceable(40) %14)
  %16 = getelementptr inbounds nuw { i32, i64 }, ptr %3, i32 0, i32 0
  %17 = extractvalue { i32, i64 } %15, 0
  store i32 %17, ptr %16, align 8
  %18 = getelementptr inbounds nuw { i32, i64 }, ptr %3, i32 0, i32 1
  %19 = extractvalue { i32, i64 } %15, 1
  store i64 %19, ptr %18, align 8
  br label %26

20:                                               ; preds = %2
  store i32 0, ptr %7, align 4
  call void @_ZN4llvm3LLTC2Ev(ptr noundef nonnull align 8 dereferenceable(8) %8)
  %21 = call { i32, i64 } @_ZSt9make_pairIiN4llvm3LLTEESt4pairINSt25__strip_reference_wrapperINSt5decayIT_E4typeEE6__typeENS3_INS4_IT0_E4typeEE6__typeEEOS5_OSA_(ptr noundef nonnull align 4 dereferenceable(4) %7, ptr noundef nonnull align 8 dereferenceable(8) %8)
  %22 = getelementptr inbounds nuw { i32, i64 }, ptr %6, i32 0, i32 0
  %23 = extractvalue { i32, i64 } %21, 0
  store i32 %23, ptr %22, align 8
  %24 = getelementptr inbounds nuw { i32, i64 }, ptr %6, i32 0, i32 1
  %25 = extractvalue { i32, i64 } %21, 1
  store i64 %25, ptr %24, align 8
  call void @_ZNSt4pairIjN4llvm3LLTEEC2IiS1_TnNSt9enable_ifIXaaclsr6_PCCFPIT_T0_EE22_MoveConstructiblePairIS5_S6_EEclsr6_PCCFPIS5_S6_EE30_ImplicitlyMoveConvertiblePairIS5_S6_EEEbE4typeELb1EEEOS_IS5_S6_E(ptr noundef nonnull align 8 dereferenceable(16) %3, ptr noundef nonnull align 8 dereferenceable(16) %6)
  br label %26

26:                                               ; preds = %20, %12
  %27 = load { i32, i64 }, ptr %3, align 8
  ret { i32, i64 } %27
}

; Function Attrs: mustprogress nounwind uwtable
define linkonce_odr hidden noundef zeroext i1 @_ZNK4llvm12LegalizeRule5matchERKNS_13LegalityQueryE(ptr noundef nonnull align 8 dereferenceable(72) %0, ptr noundef nonnull align 8 dereferenceable(40) %1) #1 comdat align 2 {
  %3 = alloca ptr, align 8
  %4 = alloca ptr, align 8
  store ptr %0, ptr %3, align 8
  store ptr %1, ptr %4, align 8
  %5 = load ptr, ptr %3, align 8
  %6 = getelementptr inbounds nuw %"class.llvm::LegalizeRule", ptr %5, i32 0, i32 0
  %7 = load ptr, ptr %4, align 8
  %8 = call noundef zeroext i1 @_ZNKSt8functionIFbRKN4llvm13LegalityQueryEEEclES3_(ptr noundef nonnull align 8 dereferenceable(32) %6, ptr noundef nonnull align 8 dereferenceable(40) %7)
  ret i1 %8
}

; Function Attrs: mustprogress nounwind uwtable
define linkonce_odr hidden noundef ptr @_ZNK4llvm25SmallVectorTemplateCommonINS_12LegalizeRuleEvE3endEv(ptr noundef nonnull align 8 dereferenceable(16) %0) #1 comdat align 2 {
  %2 = alloca ptr, align 8
  store ptr %0, ptr %2, align 8
  %3 = load ptr, ptr %2, align 8
  %4 = call noundef ptr @_ZNK4llvm25SmallVectorTemplateCommonINS_12LegalizeRuleEvE5beginEv(ptr noundef nonnull align 8 dereferenceable(16) %3)
  %5 = call noundef i64 @_ZNK4llvm15SmallVectorBaseIjE4sizeEv(ptr noundef nonnull align 8 dereferenceable(16) %3)
  %6 = getelementptr inbounds %"class.llvm::LegalizeRule", ptr %4, i64 %5
  ret ptr %6
}

; Function Attrs: mustprogress nounwind uwtable
define linkonce_odr hidden noundef ptr @_ZNK4llvm25SmallVectorTemplateCommonINS_12LegalizeRuleEvE5beginEv(ptr noundef nonnull align 8 dereferenceable(16) %0) #1 comdat align 2 {
  %2 = alloca ptr, align 8
  store ptr %0, ptr %2, align 8
  %3 = load ptr, ptr %2, align 8
  %4 = getelementptr inbounds nuw %"class.llvm::SmallVectorBase", ptr %3, i32 0, i32 0
  %5 = load ptr, ptr %4, align 8
  ret ptr %5
}

; Function Attrs: mustprogress nounwind uwtable
define linkonce_odr hidden void @_ZN4llvm18LegalizeActionStepC2ENS_15LegalizeActions14LegalizeActionEjNS_3LLTE(ptr noundef nonnull align 8 dereferenceable(16) %0, i8 noundef zeroext %1, i32 noundef %2, i64 %3) unnamed_addr #1 comdat align 2 {
  %5 = alloca %"class.llvm::LLT", align 8
  %6 = alloca ptr, align 8
  %7 = alloca i8, align 1
  %8 = alloca i32, align 4
  %9 = getelementptr inbounds nuw %"class.llvm::LLT", ptr %5, i32 0, i32 0
  store i64 %3, ptr %9, align 8
  store ptr %0, ptr %6, align 8
  store i8 %1, ptr %7, align 1
  store i32 %2, ptr %8, align 4
  %10 = load ptr, ptr %6, align 8
  %11 = getelementptr inbounds nuw %"struct.llvm::LegalizeActionStep", ptr %10, i32 0, i32 0
  %12 = load i8, ptr %7, align 1
  store i8 %12, ptr %11, align 8
  %13 = getelementptr inbounds nuw %"struct.llvm::LegalizeActionStep", ptr %10, i32 0, i32 1
  %14 = load i32, ptr %8, align 4
  store i32 %14, ptr %13, align 4
  %15 = getelementptr inbounds nuw %"struct.llvm::LegalizeActionStep", ptr %10, i32 0, i32 2
  call void @llvm.memcpy.p0.p0.i64(ptr align 8 %15, ptr align 8 %5, i64 8, i1 false)
  ret void
}

; Function Attrs: mustprogress nounwind uwtable
define linkonce_odr hidden void @_ZN4llvm3LLTC2Ev(ptr noundef nonnull align 8 dereferenceable(8) %0) unnamed_addr #1 comdat align 2 {
  %2 = alloca ptr, align 8
  store ptr %0, ptr %2, align 8
  %3 = load ptr, ptr %2, align 8
  %4 = load i64, ptr %3, align 8
  %5 = and i64 %4, -2
  %6 = or i64 %5, 0
  store i64 %6, ptr %3, align 8
  %7 = load i64, ptr %3, align 8
  %8 = and i64 %7, -3
  %9 = or i64 %8, 0
  store i64 %9, ptr %3, align 8
  %10 = load i64, ptr %3, align 8
  %11 = and i64 %10, -5
  %12 = or i64 %11, 0
  store i64 %12, ptr %3, align 8
  %13 = load i64, ptr %3, align 8
  %14 = and i64 %13, 7
  %15 = or i64 %14, 0
  store i64 %15, ptr %3, align 8
  ret void
}

; Function Attrs: mustprogress nounwind uwtable
define dso_local { i64, i64 } @_ZNK4llvm15LegalizeRuleSet5applyERKNS_13LegalityQueryE(ptr noundef nonnull align 8 dereferenceable(168) %0, ptr noundef nonnull align 8 dereferenceable(40) %1) #1 align 2 {
  %3 = alloca %"struct.llvm::LegalizeActionStep", align 8
  %4 = alloca ptr, align 8
  %5 = alloca ptr, align 8
  %6 = alloca %"class.llvm::LLT", align 8
  %7 = alloca ptr, align 8
  %8 = alloca ptr, align 8
  %9 = alloca ptr, align 8
  %10 = alloca ptr, align 8
  %11 = alloca %"struct.std::pair", align 8
  %12 = alloca %"class.llvm::LLT", align 8
  %13 = alloca %"class.llvm::LLT", align 8
  store ptr %0, ptr %4, align 8
  store ptr %1, ptr %5, align 8
  %14 = load ptr, ptr %4, align 8
  br label %15

15:                                               ; preds = %2
  br label %16

16:                                               ; preds = %15
  %17 = getelementptr inbounds nuw %"class.llvm::LegalizeRuleSet", ptr %14, i32 0, i32 2
  %18 = call noundef zeroext i1 @_ZNK4llvm15SmallVectorBaseIjE5emptyEv(ptr noundef nonnull align 8 dereferenceable(16) %17)
  br i1 %18, label %19, label %24

19:                                               ; preds = %16
  br label %20

20:                                               ; preds = %19
  br label %21

21:                                               ; preds = %20
  call void @_ZN4llvm3LLTC2Ev(ptr noundef nonnull align 8 dereferenceable(8) %6)
  %22 = getelementptr inbounds nuw %"class.llvm::LLT", ptr %6, i32 0, i32 0
  %23 = load i64, ptr %22, align 8
  call void @_ZN4llvm18LegalizeActionStepC2ENS_15LegalizeActions14LegalizeActionEjNS_3LLTE(ptr noundef nonnull align 8 dereferenceable(16) %3, i8 noundef zeroext 11, i32 noundef 0, i64 %23)
  br label %70

24:                                               ; preds = %16
  %25 = getelementptr inbounds nuw %"class.llvm::LegalizeRuleSet", ptr %14, i32 0, i32 2
  store ptr %25, ptr %7, align 8
  %26 = load ptr, ptr %7, align 8
  %27 = call noundef ptr @_ZNK4llvm25SmallVectorTemplateCommonINS_12LegalizeRuleEvE5beginEv(ptr noundef nonnull align 8 dereferenceable(16) %26)
  store ptr %27, ptr %8, align 8
  %28 = load ptr, ptr %7, align 8
  %29 = call noundef ptr @_ZNK4llvm25SmallVectorTemplateCommonINS_12LegalizeRuleEvE3endEv(ptr noundef nonnull align 8 dereferenceable(16) %28)
  store ptr %29, ptr %9, align 8
  br label %30

30:                                               ; preds = %62, %24
  %31 = load ptr, ptr %8, align 8
  %32 = load ptr, ptr %9, align 8
  %33 = icmp ne ptr %31, %32
  br i1 %33, label %34, label %65

34:                                               ; preds = %30
  %35 = load ptr, ptr %8, align 8
  store ptr %35, ptr %10, align 8
  %36 = load ptr, ptr %10, align 8
  %37 = load ptr, ptr %5, align 8
  %38 = call noundef zeroext i1 @_ZNK4llvm12LegalizeRule5matchERKNS_13LegalityQueryE(ptr noundef nonnull align 8 dereferenceable(72) %36, ptr noundef nonnull align 8 dereferenceable(40) %37)
  br i1 %38, label %39, label %58

39:                                               ; preds = %34
  br label %40

40:                                               ; preds = %39
  br label %41

41:                                               ; preds = %40
  %42 = load ptr, ptr %10, align 8
  %43 = load ptr, ptr %5, align 8
  %44 = call { i32, i64 } @_ZNK4llvm12LegalizeRule17determineMutationERKNS_13LegalityQueryE(ptr noundef nonnull align 8 dereferenceable(72) %42, ptr noundef nonnull align 8 dereferenceable(40) %43)
  %45 = getelementptr inbounds nuw { i32, i64 }, ptr %11, i32 0, i32 0
  %46 = extractvalue { i32, i64 } %44, 0
  store i32 %46, ptr %45, align 8
  %47 = getelementptr inbounds nuw { i32, i64 }, ptr %11, i32 0, i32 1
  %48 = extractvalue { i32, i64 } %44, 1
  store i64 %48, ptr %47, align 8
  br label %49

49:                                               ; preds = %41
  br label %50

50:                                               ; preds = %49
  %51 = load ptr, ptr %10, align 8
  %52 = call noundef zeroext i8 @_ZNK4llvm12LegalizeRule9getActionEv(ptr noundef nonnull align 8 dereferenceable(72) %51)
  %53 = getelementptr inbounds nuw %"struct.std::pair", ptr %11, i32 0, i32 0
  %54 = load i32, ptr %53, align 8
  %55 = getelementptr inbounds nuw %"struct.std::pair", ptr %11, i32 0, i32 1
  call void @llvm.memcpy.p0.p0.i64(ptr align 8 %12, ptr align 8 %55, i64 8, i1 false)
  %56 = getelementptr inbounds nuw %"class.llvm::LLT", ptr %12, i32 0, i32 0
  %57 = load i64, ptr %56, align 8
  call void @_ZN4llvm18LegalizeActionStepC2ENS_15LegalizeActions14LegalizeActionEjNS_3LLTE(ptr noundef nonnull align 8 dereferenceable(16) %3, i8 noundef zeroext %52, i32 noundef %54, i64 %57)
  br label %70

58:                                               ; preds = %34
  br label %59

59:                                               ; preds = %58
  br label %60

60:                                               ; preds = %59
  br label %61

61:                                               ; preds = %60
  br label %62

62:                                               ; preds = %61
  %63 = load ptr, ptr %8, align 8
  %64 = getelementptr inbounds %"class.llvm::LegalizeRule", ptr %63, i32 1
  store ptr %64, ptr %8, align 8
  br label %30

65:                                               ; preds = %30
  br label %66

66:                                               ; preds = %65
  br label %67

67:                                               ; preds = %66
  call void @_ZN4llvm3LLTC2Ev(ptr noundef nonnull align 8 dereferenceable(8) %13)
  %68 = getelementptr inbounds nuw %"class.llvm::LLT", ptr %13, i32 0, i32 0
  %69 = load i64, ptr %68, align 8
  call void @_ZN4llvm18LegalizeActionStepC2ENS_15LegalizeActions14LegalizeActionEjNS_3LLTE(ptr noundef nonnull align 8 dereferenceable(16) %3, i8 noundef zeroext 9, i32 noundef 0, i64 %69)
  br label %70

70:                                               ; preds = %67, %50, %21
  %71 = load { i64, i64 }, ptr %3, align 8
  ret { i64, i64 } %71
}