; Function Attrs: mustprogress nounwind uwtable
define dso_local { i64, i64 } @_ZNK4llvm15LegalizeRuleSet5applyERKNS_13LegalityQueryE(ptr noundef nonnull align 8 dereferenceable(168) %0, ptr noundef nonnull align 8 dereferenceable(40) %1) local_unnamed_addr #0 align 2 {
  %3 = getelementptr inbounds nuw i8, ptr %0, i64 8
  %4 = tail call noundef zeroext i1 @_ZNK4llvm15SmallVectorBaseIjE5emptyEv(ptr noundef nonnull align 8 dereferenceable(16) %3) #13
  br i1 %4, label %.loopexit, label %5

5:                                                ; preds = %2
  %6 = load ptr, ptr %3, align 8
  %7 = tail call noundef i64 @_ZNK4llvm15SmallVectorBaseIjE4sizeEv(ptr noundef nonnull align 8 dereferenceable(16) %3) #13
  %8 = getelementptr inbounds %"class.llvm::LegalizeRule", ptr %6, i64 %7
  %.not18 = icmp eq i64 %7, 0
  br i1 %.not18, label %.loopexit, label %.lr.ph

.lr.ph:                                           ; preds = %5, %29
  %.019 = phi ptr [ %30, %29 ], [ %6, %5 ]
  %9 = getelementptr inbounds nuw i8, ptr %.019, i64 16
  %10 = load ptr, ptr %9, align 8
  %.not.i.i.i = icmp eq ptr %10, null
  br i1 %.not.i.i.i, label %11, label %_ZNK4llvm12LegalizeRule5matchERKNS_13LegalityQueryE.exit

11:                                               ; preds = %.lr.ph
  tail call void @_ZSt25__throw_bad_function_callv() #14
  unreachable

_ZNK4llvm12LegalizeRule5matchERKNS_13LegalityQueryE.exit: ; preds = %.lr.ph
  %12 = getelementptr inbounds nuw i8, ptr %.019, i64 24
  %13 = load ptr, ptr %12, align 8
  %14 = tail call noundef zeroext i1 %13(ptr noundef nonnull align 8 dereferenceable(72) %.019, ptr noundef nonnull align 8 dereferenceable(40) %1) #13
  br i1 %14, label %15, label %29

15:                                               ; preds = %_ZNK4llvm12LegalizeRule5matchERKNS_13LegalityQueryE.exit
  %16 = getelementptr inbounds nuw i8, ptr %.019, i64 56
  %17 = load ptr, ptr %16, align 8
  %.not.i.i.not.i = icmp eq ptr %17, null
  br i1 %.not.i.i.not.i, label %_ZNK4llvm12LegalizeRule17determineMutationERKNS_13LegalityQueryE.exit, label %_ZNKSt8functionIFSt4pairIjN4llvm3LLTEERKNS1_13LegalityQueryEEEclES6_.exit.i

_ZNKSt8functionIFSt4pairIjN4llvm3LLTEERKNS1_13LegalityQueryEEEclES6_.exit.i: ; preds = %15
  %18 = getelementptr inbounds nuw i8, ptr %.019, i64 40
  %19 = getelementptr inbounds nuw i8, ptr %.019, i64 64
  %20 = load ptr, ptr %19, align 8
  %21 = tail call { i32, i64 } %20(ptr noundef nonnull align 8 dereferenceable(32) %18, ptr noundef nonnull align 8 dereferenceable(40) %1) #13
  %22 = extractvalue { i32, i64 } %21, 0
  %23 = extractvalue { i32, i64 } %21, 1
  %24 = zext i32 %22 to i64
  %25 = shl nuw i64 %24, 32
  br label %_ZNK4llvm12LegalizeRule17determineMutationERKNS_13LegalityQueryE.exit

_ZNK4llvm12LegalizeRule17determineMutationERKNS_13LegalityQueryE.exit: ; preds = %15, %_ZNKSt8functionIFSt4pairIjN4llvm3LLTEERKNS1_13LegalityQueryEEEclES6_.exit.i
  %.sroa.04.0.i = phi i64 [ %25, %_ZNKSt8functionIFSt4pairIjN4llvm3LLTEERKNS1_13LegalityQueryEEEclES6_.exit.i ], [ 0, %15 ]
  %.sroa.3.0.i = phi i64 [ %23, %_ZNKSt8functionIFSt4pairIjN4llvm3LLTEERKNS1_13LegalityQueryEEEclES6_.exit.i ], [ 0, %15 ]
  %26 = getelementptr inbounds nuw i8, ptr %.019, i64 32
  %27 = load i8, ptr %26, align 8
  %28 = zext i8 %27 to i64
  br label %.loopexit

29:                                               ; preds = %_ZNK4llvm12LegalizeRule5matchERKNS_13LegalityQueryE.exit
  %30 = getelementptr inbounds nuw i8, ptr %.019, i64 72
  %.not = icmp eq ptr %30, %8
  br i1 %.not, label %.loopexit, label %.lr.ph

.loopexit:                                        ; preds = %29, %5, %2, %_ZNK4llvm12LegalizeRule17determineMutationERKNS_13LegalityQueryE.exit
  %.sroa.014.0 = phi i64 [ %28, %_ZNK4llvm12LegalizeRule17determineMutationERKNS_13LegalityQueryE.exit ], [ 11, %2 ], [ 9, %5 ], [ 9, %29 ]
  %.sroa.415.0 = phi i64 [ %.sroa.04.0.i, %_ZNK4llvm12LegalizeRule17determineMutationERKNS_13LegalityQueryE.exit ], [ 0, %2 ], [ 0, %5 ], [ 0, %29 ]
  %.sroa.7.0 = phi i64 [ %.sroa.3.0.i, %_ZNK4llvm12LegalizeRule17determineMutationERKNS_13LegalityQueryE.exit ], [ 0, %2 ], [ 0, %5 ], [ 0, %29 ]
  %.sroa.014.0.insert.insert = or i64 %.sroa.415.0, %.sroa.014.0
  %.fca.0.insert = insertvalue { i64, i64 } poison, i64 %.sroa.014.0.insert.insert, 0
  %.fca.1.insert = insertvalue { i64, i64 } %.fca.0.insert, i64 %.sroa.7.0, 1
  ret { i64, i64 } %.fca.1.insert
}